; Function Attrs: mustprogress nounwind uwtable
define hidden void @verify() local_unnamed_addr #1 {
  %1 = tail call align 8 ptr @llvm.threadlocal.address.p0(ptr align 8 @_ZN6Thread12_thr_currentE)
  %2 = load ptr, ptr %1, align 8
  %3 = getelementptr inbounds i8, ptr %2, i64 800
  %4 = load ptr, ptr %3, align 8
  %5 = getelementptr inbounds i8, ptr %4, i64 24
  %6 = load ptr, ptr %5, align 8
  %7 = getelementptr inbounds i8, ptr %4, i64 32
  %8 = load ptr, ptr %7, align 8
  %9 = getelementptr inbounds i8, ptr %4, i64 40
  %10 = load ptr, ptr %9, align 8
  %11 = getelementptr inbounds i8, ptr %4, i64 8
  %12 = load i64, ptr %11, align 8
  %13 = load i32, ptr @_ZN16DebuggingContext8_enabledE, align 4
  %14 = add nsw i32 %13, 1
  store i32 %14, ptr @_ZN16DebuggingContext8_enabledE, align 4
  %15 = load i32, ptr @_ZN7Command5levelE, align 4
  %16 = add nsw i32 %15, 1
  store i32 %16, ptr @_ZN7Command5levelE, align 4
  %17 = icmp sgt i32 %15, 0
  br i1 %17, label %_ZN7CommandC2EPKc.exit, label %18

18:                                               ; preds = %0
  %19 = load ptr, ptr @tty, align 8
  tail call void @_ZN12outputStream2crEv(ptr noundef nonnull align 8 dereferenceable(56) %19) #16
  %20 = load ptr, ptr @tty, align 8
  tail call void (ptr, ptr, ...) @_ZN12outputStream8print_crEPKcz(ptr noundef nonnull align 8 dereferenceable(56) %20, ptr noundef nonnull @.str.82, ptr noundef nonnull @.str.25) #16
  br label %_ZN7CommandC2EPKc.exit

_ZN7CommandC2EPKc.exit:                           ; preds = %0, %18
  %21 = load volatile i32, ptr @_ZN20SafepointSynchronize6_stateE, align 4
  %22 = icmp eq i32 %21, 2
  br i1 %22, label %.critedge, label %23

23:                                               ; preds = %_ZN7CommandC2EPKc.exit
  %24 = load ptr, ptr @tty, align 8
  tail call void (ptr, ptr, ...) @_ZN12outputStream8print_crEPKcz(ptr noundef nonnull align 8 dereferenceable(56) %24, ptr noundef nonnull @.str.26) #16
  store volatile i32 2, ptr @_ZN20SafepointSynchronize6_stateE, align 4
  %25 = load ptr, ptr @_ZN8Universe14_collectedHeapE, align 8
  %26 = load ptr, ptr %25, align 8
  %27 = getelementptr inbounds i8, ptr %26, i64 280
  %28 = load ptr, ptr %27, align 8
  tail call void %28(ptr noundef nonnull align 8 dereferenceable(104) %25) #16
  tail call void @_ZN8Universe6verifyE12VerifyOptionPKc(i32 noundef 0, ptr noundef nonnull @.str.7) #16
  store volatile i32 0, ptr @_ZN20SafepointSynchronize6_stateE, align 4
  br label %33

.critedge:                                        ; preds = %_ZN7CommandC2EPKc.exit
  %29 = load ptr, ptr @_ZN8Universe14_collectedHeapE, align 8
  %30 = load ptr, ptr %29, align 8
  %31 = getelementptr inbounds i8, ptr %30, i64 280
  %32 = load ptr, ptr %31, align 8
  tail call void %32(ptr noundef nonnull align 8 dereferenceable(104) %29) #16
  tail call void @_ZN8Universe6verifyE12VerifyOptionPKc(i32 noundef 0, ptr noundef nonnull @.str.7) #16
  br label %33

33:                                               ; preds = %.critedge, %23
  %34 = load ptr, ptr @tty, align 8
  %35 = load ptr, ptr %34, align 8
  %36 = load ptr, ptr %35, align 8
  tail call void %36(ptr noundef nonnull align 8 dereferenceable(56) %34) #16
  %37 = load i32, ptr @_ZN7Command5levelE, align 4
  %38 = add nsw i32 %37, -1
  store i32 %38, ptr @_ZN7Command5levelE, align 4
  %39 = load i32, ptr @_ZN16DebuggingContext8_enabledE, align 4
  %40 = icmp sgt i32 %39, 0
  br i1 %40, label %_ZN16DebuggingContextD2Ev.exit.i, label %41

41:                                               ; preds = %33
  %42 = load ptr, ptr @g_assert_poison, align 8
  store i8 88, ptr %42, align 1
  tail call void (i32, ptr, i32, ptr, ...) @_Z12report_fatal11VMErrorTypePKciS1_z(i32 noundef -536870912, ptr noundef nonnull @.str, i32 noundef 91, ptr noundef nonnull @.str.4) #15
  unreachable

_ZN16DebuggingContextD2Ev.exit.i:                 ; preds = %33
  %43 = add nsw i32 %39, -1
  store i32 %43, ptr @_ZN16DebuggingContext8_enabledE, align 4
  %44 = load ptr, ptr %6, align 8
  %.not.i.i.i.i.i = icmp eq ptr %44, null
  br i1 %.not.i.i.i.i.i, label %46, label %45

45:                                               ; preds = %_ZN16DebuggingContextD2Ev.exit.i
  tail call void @_ZN5Arena17set_size_in_bytesEm(ptr noundef nonnull align 8 dereferenceable(48) %4, i64 noundef %12) #16
  tail call void @_ZN5Chunk9next_chopEPS_(ptr noundef nonnull %6) #16
  br label %46

46:                                               ; preds = %45, %_ZN16DebuggingContextD2Ev.exit.i
  %47 = load ptr, ptr %7, align 8
  %.not8.i.i.i.i.i = icmp eq ptr %47, %8
  br i1 %.not8.i.i.i.i.i, label %_ZN7CommandD2Ev.exit, label %48

48:                                               ; preds = %46
  store ptr %6, ptr %5, align 8
  store ptr %8, ptr %7, align 8
  store ptr %10, ptr %9, align 8
  br label %_ZN7CommandD2Ev.exit

_ZN7CommandD2Ev.exit:                             ; preds = %46, %48
  ret void
}